
bomb:	file format ELF32-i386


Disassembly of section .init:

080486e0 _init:
 80486e0: 55                           	pushl	%ebp
 80486e1: 89 e5                        	movl	%esp, %ebp
 80486e3: 53                           	pushl	%ebx
 80486e4: e8 00 00 00 00               	calll	0 <_init+0x9>
 80486e9: 5b                           	popl	%ebx
 80486ea: 81 c3 2f 2e 00 00            	addl	$11823, %ebx
 80486f0: 83 bb 7c 00 00 00 00         	cmpl	$0, 124(%ebx)
 80486f7: 74 05                        	je	5 <_init+0x1e>
 80486f9: e8 02 79 fb f7               	calll	-134514430 <tmpfile@@GLIBC_2.1>
 80486fe: 89 f6                        	movl	%esi, %esi
 8048700: e8 6b 02 00 00               	calll	619 <frame_dummy>
 8048705: e8 a6 0e 00 00               	calll	3750 <gcc2_compiled.>
 804870a: 8b 5d fc                     	movl	-4(%ebp), %ebx
 804870d: c9                           	leave
 804870e: c3                           	retl

Disassembly of section .plt:

08048710 .plt:
 8048710: ff 35 1c b5 04 08            	pushl	134526236
 8048716: ff 25 20 b5 04 08            	jmpl	*134526240
 804871c: 00 00                        	addb	%al, (%eax)
 804871e: 00 00                        	addb	%al, (%eax)
 8048720: ff 25 24 b5 04 08            	jmpl	*134526244
 8048726: 68 00 00 00 00               	pushl	$0
 804872b: e9 e0 ff ff ff               	jmp	-32 <.plt>
 8048730: ff 25 28 b5 04 08            	jmpl	*134526248
 8048736: 68 08 00 00 00               	pushl	$8
 804873b: e9 d0 ff ff ff               	jmp	-48 <.plt>
 8048740: ff 25 2c b5 04 08            	jmpl	*134526252
 8048746: 68 10 00 00 00               	pushl	$16
 804874b: e9 c0 ff ff ff               	jmp	-64 <.plt>
 8048750: ff 25 30 b5 04 08            	jmpl	*134526256
 8048756: 68 18 00 00 00               	pushl	$24
 804875b: e9 b0 ff ff ff               	jmp	-80 <.plt>
 8048760: ff 25 34 b5 04 08            	jmpl	*134526260
 8048766: 68 20 00 00 00               	pushl	$32
 804876b: e9 a0 ff ff ff               	jmp	-96 <.plt>
 8048770: ff 25 38 b5 04 08            	jmpl	*134526264
 8048776: 68 28 00 00 00               	pushl	$40
 804877b: e9 90 ff ff ff               	jmp	-112 <.plt>
 8048780: ff 25 3c b5 04 08            	jmpl	*134526268
 8048786: 68 30 00 00 00               	pushl	$48
 804878b: e9 80 ff ff ff               	jmp	-128 <.plt>
 8048790: ff 25 40 b5 04 08            	jmpl	*134526272
 8048796: 68 38 00 00 00               	pushl	$56
 804879b: e9 70 ff ff ff               	jmp	-144 <.plt>
 80487a0: ff 25 44 b5 04 08            	jmpl	*134526276
 80487a6: 68 40 00 00 00               	pushl	$64
 80487ab: e9 60 ff ff ff               	jmp	-160 <.plt>
 80487b0: ff 25 48 b5 04 08            	jmpl	*134526280
 80487b6: 68 48 00 00 00               	pushl	$72
 80487bb: e9 50 ff ff ff               	jmp	-176 <.plt>
 80487c0: ff 25 4c b5 04 08            	jmpl	*134526284
 80487c6: 68 50 00 00 00               	pushl	$80
 80487cb: e9 40 ff ff ff               	jmp	-192 <.plt>
 80487d0: ff 25 50 b5 04 08            	jmpl	*134526288
 80487d6: 68 58 00 00 00               	pushl	$88
 80487db: e9 30 ff ff ff               	jmp	-208 <.plt>
 80487e0: ff 25 54 b5 04 08            	jmpl	*134526292
 80487e6: 68 60 00 00 00               	pushl	$96
 80487eb: e9 20 ff ff ff               	jmp	-224 <.plt>
 80487f0: ff 25 58 b5 04 08            	jmpl	*134526296
 80487f6: 68 68 00 00 00               	pushl	$104
 80487fb: e9 10 ff ff ff               	jmp	-240 <.plt>
 8048800: ff 25 5c b5 04 08            	jmpl	*134526300
 8048806: 68 70 00 00 00               	pushl	$112
 804880b: e9 00 ff ff ff               	jmp	-256 <.plt>
 8048810: ff 25 60 b5 04 08            	jmpl	*134526304
 8048816: 68 78 00 00 00               	pushl	$120
 804881b: e9 f0 fe ff ff               	jmp	-272 <.plt>
 8048820: ff 25 64 b5 04 08            	jmpl	*134526308
 8048826: 68 80 00 00 00               	pushl	$128
 804882b: e9 e0 fe ff ff               	jmp	-288 <.plt>
 8048830: ff 25 68 b5 04 08            	jmpl	*134526312
 8048836: 68 88 00 00 00               	pushl	$136
 804883b: e9 d0 fe ff ff               	jmp	-304 <.plt>
 8048840: ff 25 6c b5 04 08            	jmpl	*134526316
 8048846: 68 90 00 00 00               	pushl	$144
 804884b: e9 c0 fe ff ff               	jmp	-320 <.plt>
 8048850: ff 25 70 b5 04 08            	jmpl	*134526320
 8048856: 68 98 00 00 00               	pushl	$152
 804885b: e9 b0 fe ff ff               	jmp	-336 <.plt>
 8048860: ff 25 74 b5 04 08            	jmpl	*134526324
 8048866: 68 a0 00 00 00               	pushl	$160
 804886b: e9 a0 fe ff ff               	jmp	-352 <.plt>
 8048870: ff 25 78 b5 04 08            	jmpl	*134526328
 8048876: 68 a8 00 00 00               	pushl	$168
 804887b: e9 90 fe ff ff               	jmp	-368 <.plt>
 8048880: ff 25 7c b5 04 08            	jmpl	*134526332
 8048886: 68 b0 00 00 00               	pushl	$176
 804888b: e9 80 fe ff ff               	jmp	-384 <.plt>
 8048890: ff 25 80 b5 04 08            	jmpl	*134526336
 8048896: 68 b8 00 00 00               	pushl	$184
 804889b: e9 70 fe ff ff               	jmp	-400 <.plt>
 80488a0: ff 25 84 b5 04 08            	jmpl	*134526340
 80488a6: 68 c0 00 00 00               	pushl	$192
 80488ab: e9 60 fe ff ff               	jmp	-416 <.plt>
 80488b0: ff 25 88 b5 04 08            	jmpl	*134526344
 80488b6: 68 c8 00 00 00               	pushl	$200
 80488bb: e9 50 fe ff ff               	jmp	-432 <.plt>
 80488c0: ff 25 8c b5 04 08            	jmpl	*134526348
 80488c6: 68 d0 00 00 00               	pushl	$208
 80488cb: e9 40 fe ff ff               	jmp	-448 <.plt>
 80488d0: ff 25 90 b5 04 08            	jmpl	*134526352
 80488d6: 68 d8 00 00 00               	pushl	$216
 80488db: e9 30 fe ff ff               	jmp	-464 <.plt>

Disassembly of section .text:

080488e0 _start:
 80488e0: 31 ed                        	xorl	%ebp, %ebp
 80488e2: 5e                           	popl	%esi
 80488e3: 89 e1                        	movl	%esp, %ecx
 80488e5: 83 e4 f8                     	andl	$-8, %esp
 80488e8: 50                           	pushl	%eax
 80488e9: 54                           	pushl	%esp
 80488ea: 52                           	pushl	%edx
 80488eb: 68 e4 95 04 08               	pushl	$134518244
 80488f0: 68 e0 86 04 08               	pushl	$134514400
 80488f5: 51                           	pushl	%ecx
 80488f6: 56                           	pushl	%esi
 80488f7: 68 b0 89 04 08               	pushl	$134515120
 80488fc: e8 ff fe ff ff               	calll	-257 <.plt+0xf0>
 8048901: f4                           	hlt
 8048902: 90                           	nop
 8048903: 90                           	nop

08048904 gcc2_compiled.:
 8048904: 90                           	nop
 8048905: 90                           	nop
 8048906: 90                           	nop
 8048907: 90                           	nop
 8048908: 90                           	nop
 8048909: 90                           	nop
 804890a: 90                           	nop
 804890b: 90                           	nop
 804890c: 90                           	nop
 804890d: 90                           	nop
 804890e: 90                           	nop
 804890f: 90                           	nop

08048910 gcc2_compiled.:
 8048910: 55                           	pushl	%ebp
 8048911: 89 e5                        	movl	%esp, %ebp
 8048913: 83 ec 08                     	subl	$8, %esp
 8048916: 83 3d e8 ad 04 08 00         	cmpl	$0, 134524392
 804891d: 75 3e                        	jne	62 <gcc2_compiled.+0x4d>
 804891f: eb 12                        	jmp	18 <gcc2_compiled.+0x23>
 8048921: a1 e4 ad 04 08               	movl	134524388, %eax
 8048926: 8d 50 04                     	leal	4(%eax), %edx
 8048929: 89 15 e4 ad 04 08            	movl	%edx, 134524388
 804892f: 8b 00                        	movl	(%eax), %eax
 8048931: ff d0                        	calll	*%eax
 8048933: a1 e4 ad 04 08               	movl	134524388, %eax
 8048938: 83 38 00                     	cmpl	$0, (%eax)
 804893b: 75 e4                        	jne	-28 <gcc2_compiled.+0x11>
 804893d: b8 c0 87 04 08               	movl	$134514624, %eax
 8048942: 85 c0                        	testl	%eax, %eax
 8048944: 74 0d                        	je	13 <gcc2_compiled.+0x43>
 8048946: 83 c4 f4                     	addl	$-12, %esp
 8048949: 68 84 b4 04 08               	pushl	$134526084
 804894e: e8 6d fe ff ff               	calll	-403 <.plt+0xb0>
 8048953: c7 05 e8 ad 04 08 01 00 00 00	movl	$1, 134524392
 804895d: 89 ec                        	movl	%ebp, %esp
 804895f: 5d                           	popl	%ebp
 8048960: c3                           	retl
 8048961: 8d 76 00                     	leal	(%esi), %esi

08048964 fini_dummy:
 8048964: 55                           	pushl	%ebp
 8048965: 89 e5                        	movl	%esp, %ebp
 8048967: 83 ec 08                     	subl	$8, %esp
 804896a: 89 ec                        	movl	%ebp, %esp
 804896c: 5d                           	popl	%ebp
 804896d: c3                           	retl
 804896e: 89 f6                        	movl	%esi, %esi

08048970 frame_dummy:
 8048970: 55                           	pushl	%ebp
 8048971: 89 e5                        	movl	%esp, %ebp
 8048973: 83 ec 08                     	subl	$8, %esp
 8048976: b8 20 87 04 08               	movl	$134514464, %eax
 804897b: 85 c0                        	testl	%eax, %eax
 804897d: 74 12                        	je	18 <frame_dummy+0x21>
 804897f: 83 c4 f8                     	addl	$-8, %esp
 8048982: 68 4c b6 04 08               	pushl	$134526540
 8048987: 68 84 b4 04 08               	pushl	$134526084
 804898c: e8 8f fd ff ff               	calll	-625 <.plt+0x10>
 8048991: 89 ec                        	movl	%ebp, %esp
 8048993: 5d                           	popl	%ebp
 8048994: c3                           	retl
 8048995: 8d 76 00                     	leal	(%esi), %esi

08048998 init_dummy:
 8048998: 55                           	pushl	%ebp
 8048999: 89 e5                        	movl	%esp, %ebp
 804899b: 83 ec 08                     	subl	$8, %esp
 804899e: 89 ec                        	movl	%ebp, %esp
 80489a0: 5d                           	popl	%ebp
 80489a1: c3                           	retl
 80489a2: 90                           	nop
 80489a3: 90                           	nop
 80489a4: 90                           	nop
 80489a5: 90                           	nop
 80489a6: 90                           	nop
 80489a7: 90                           	nop
 80489a8: 90                           	nop
 80489a9: 90                           	nop
 80489aa: 90                           	nop
 80489ab: 90                           	nop
 80489ac: 90                           	nop
 80489ad: 90                           	nop
 80489ae: 90                           	nop
 80489af: 90                           	nop

080489b0 main:
 80489b0: 55                           	pushl	%ebp
 80489b1: 89 e5                        	movl	%esp, %ebp
 80489b3: 83 ec 14                     	subl	$20, %esp
 80489b6: 53                           	pushl	%ebx
 80489b7: 8b 45 08                     	movl	8(%ebp), %eax
 80489ba: 8b 5d 0c                     	movl	12(%ebp), %ebx
 80489bd: 83 f8 01                     	cmpl	$1, %eax
 80489c0: 75 0e                        	jne	14 <main+0x20>
 80489c2: a1 48 b6 04 08               	movl	134526536, %eax
 80489c7: a3 64 b6 04 08               	movl	%eax, 134526564
 80489cc: eb 62                        	jmp	98 <main+0x80>
 80489ce: 89 f6                        	movl	%esi, %esi
 80489d0: 83 f8 02                     	cmpl	$2, %eax
 80489d3: 75 3b                        	jne	59 <main+0x60>
 80489d5: 83 c4 f8                     	addl	$-8, %esp
 80489d8: 68 20 96 04 08               	pushl	$134518304
 80489dd: 8b 43 04                     	movl	4(%ebx), %eax
 80489e0: 50                           	pushl	%eax
 80489e1: e8 9a fe ff ff               	calll	-358 <.plt+0x170>
 80489e6: a3 64 b6 04 08               	movl	%eax, 134526564
 80489eb: 83 c4 10                     	addl	$16, %esp
 80489ee: 85 c0                        	testl	%eax, %eax
 80489f0: 75 3e                        	jne	62 <main+0x80>
 80489f2: 83 c4 fc                     	addl	$-4, %esp
 80489f5: 8b 43 04                     	movl	4(%ebx), %eax
 80489f8: 50                           	pushl	%eax
 80489f9: 8b 03                        	movl	(%ebx), %eax
 80489fb: 50                           	pushl	%eax
 80489fc: 68 22 96 04 08               	pushl	$134518306
 8048a01: e8 0a fe ff ff               	calll	-502 <.plt+0x100>
 8048a06: 83 c4 f4                     	addl	$-12, %esp
 8048a09: 6a 08                        	pushl	$8
 8048a0b: e8 40 fe ff ff               	calll	-448 <.plt+0x140>
 8048a10: 83 c4 f8                     	addl	$-8, %esp
 8048a13: 8b 03                        	movl	(%ebx), %eax
 8048a15: 50                           	pushl	%eax
 8048a16: 68 3f 96 04 08               	pushl	$134518335
 8048a1b: e8 f0 fd ff ff               	calll	-528 <.plt+0x100>
 8048a20: 83 c4 f4                     	addl	$-12, %esp
 8048a23: 6a 08                        	pushl	$8
 8048a25: e8 26 fe ff ff               	calll	-474 <.plt+0x140>
 8048a2a: 8d b6 00 00 00 00            	leal	(%esi), %esi
 8048a30: e8 2b 07 00 00               	calll	1835 <initialize_bomb>
 8048a35: 83 c4 f4                     	addl	$-12, %esp
 8048a38: 68 60 96 04 08               	pushl	$134518368
 8048a3d: e8 ce fd ff ff               	calll	-562 <.plt+0x100>
 8048a42: 83 c4 f4                     	addl	$-12, %esp
 8048a45: 68 a0 96 04 08               	pushl	$134518432
 8048a4a: e8 c1 fd ff ff               	calll	-575 <.plt+0x100>
 8048a4f: 83 c4 20                     	addl	$32, %esp
 8048a52: e8 a5 07 00 00               	calll	1957 <read_line>
 8048a57: 83 c4 f4                     	addl	$-12, %esp
 8048a5a: 50                           	pushl	%eax
 8048a5b: e8 c0 00 00 00               	calll	192 <phase_1>
 8048a60: e8 c7 0a 00 00               	calll	2759 <phase_defused>
 8048a65: 83 c4 f4                     	addl	$-12, %esp
 8048a68: 68 e0 96 04 08               	pushl	$134518496
 8048a6d: e8 9e fd ff ff               	calll	-610 <.plt+0x100>
 8048a72: 83 c4 20                     	addl	$32, %esp
 8048a75: e8 82 07 00 00               	calll	1922 <read_line>
 8048a7a: 83 c4 f4                     	addl	$-12, %esp
 8048a7d: 50                           	pushl	%eax
 8048a7e: e8 c5 00 00 00               	calll	197 <phase_2>
 8048a83: e8 a4 0a 00 00               	calll	2724 <phase_defused>
 8048a88: 83 c4 f4                     	addl	$-12, %esp
 8048a8b: 68 20 97 04 08               	pushl	$134518560
 8048a90: e8 7b fd ff ff               	calll	-645 <.plt+0x100>
 8048a95: 83 c4 20                     	addl	$32, %esp
 8048a98: e8 5f 07 00 00               	calll	1887 <read_line>
 8048a9d: 83 c4 f4                     	addl	$-12, %esp
 8048aa0: 50                           	pushl	%eax
 8048aa1: e8 f2 00 00 00               	calll	242 <phase_3>
 8048aa6: e8 81 0a 00 00               	calll	2689 <phase_defused>
 8048aab: 83 c4 f4                     	addl	$-12, %esp
 8048aae: 68 3f 97 04 08               	pushl	$134518591
 8048ab3: e8 58 fd ff ff               	calll	-680 <.plt+0x100>
 8048ab8: 83 c4 20                     	addl	$32, %esp
 8048abb: e8 3c 07 00 00               	calll	1852 <read_line>
 8048ac0: 83 c4 f4                     	addl	$-12, %esp
 8048ac3: 50                           	pushl	%eax
 8048ac4: e8 17 02 00 00               	calll	535 <phase_4>
 8048ac9: e8 5e 0a 00 00               	calll	2654 <phase_defused>
 8048ace: 83 c4 f4                     	addl	$-12, %esp
 8048ad1: 68 60 97 04 08               	pushl	$134518624
 8048ad6: e8 35 fd ff ff               	calll	-715 <.plt+0x100>
 8048adb: 83 c4 20                     	addl	$32, %esp
 8048ade: e8 19 07 00 00               	calll	1817 <read_line>
 8048ae3: 83 c4 f4                     	addl	$-12, %esp
 8048ae6: 50                           	pushl	%eax
 8048ae7: e8 40 02 00 00               	calll	576 <phase_5>
 8048aec: e8 3b 0a 00 00               	calll	2619 <phase_defused>
 8048af1: 83 c4 f4                     	addl	$-12, %esp
 8048af4: 68 a0 97 04 08               	pushl	$134518688
 8048af9: e8 12 fd ff ff               	calll	-750 <.plt+0x100>
 8048afe: 83 c4 20                     	addl	$32, %esp
 8048b01: e8 f6 06 00 00               	calll	1782 <read_line>
 8048b06: 83 c4 f4                     	addl	$-12, %esp
 8048b09: 50                           	pushl	%eax
 8048b0a: e8 89 02 00 00               	calll	649 <phase_6>
 8048b0f: e8 18 0a 00 00               	calll	2584 <phase_defused>
 8048b14: 31 c0                        	xorl	%eax, %eax
 8048b16: 8b 5d e8                     	movl	-24(%ebp), %ebx
 8048b19: 89 ec                        	movl	%ebp, %esp
 8048b1b: 5d                           	popl	%ebp
 8048b1c: c3                           	retl
 8048b1d: 90                           	nop
 8048b1e: 90                           	nop
 8048b1f: 90                           	nop

# Compare to string at 0x80497c0
08048b20 phase_1:
 8048b20: 55                           	pushl	%ebp
 8048b21: 89 e5                        	movl	%esp, %ebp
 8048b23: 83 ec 08                     	subl	$8, %esp
 8048b26: 8b 45 08                     	movl	8(%ebp), %eax
 8048b29: 83 c4 f8                     	addl	$-8, %esp
 8048b2c: 68 c0 97 04 08               	pushl	$134518720
 8048b31: 50                           	pushl	%eax
 8048b32: e8 f9 04 00 00               	calll	1273 <strings_not_equal>
 8048b37: 83 c4 10                     	addl	$16, %esp
 8048b3a: 85 c0                        	testl	%eax, %eax
 8048b3c: 74 05                        	je	5 <phase_1+0x23>
 8048b3e: e8 b9 09 00 00               	calll	2489 <explode_bomb>
 8048b43: 89 ec                        	movl	%ebp, %esp
 8048b45: 5d                           	popl	%ebp
 8048b46: c3                           	retl
 8048b47: 90                           	nop

# phase 2 stack after read_six_numbers
ebp
-4
-8 4th number
-c 3rd number
-10 2nd number
-14 1st number
-18 0th number
-1c
-20
-24 %esi (?)
-28 %ebx (?)
-2c
-30
-34 0x-18
-38 input ptr

# phase 2 stack
%ebx = 2
%esi=-0x18
%eax=8
ebp
-4
-8 4th number
-c 3rd number
-10 2nd number
-14 1st number
-18 0th number
-1c
-20
-24 %esi (?)
-28 %ebx (?)

0th number: 1
1st number: 8
2nd number: 
-- factorials.

08048b48 phase_2:
 8048b48: 55                           	pushl	%ebp
 8048b49: 89 e5                        	movl	%esp, %ebp
 8048b4b: 83 ec 20                     	subl	$32, %esp
 8048b4e: 56                           	pushl	%esi
 8048b4f: 53                           	pushl	%ebx
 8048b50: 8b 55 08                     	movl	8(%ebp), %edx
 8048b53: 83 c4 f8                     	addl	$-8, %esp
 8048b56: 8d 45 e8                     	leal	-24(%ebp), %eax
 8048b59: 50                           	pushl	%eax
 8048b5a: 52                           	pushl	%edx
 8048b5b: e8 78 04 00 00               	calll	1144 <read_six_numbers>
 8048b60: 83 c4 10                     	addl	$16, %esp
 8048b63: 83 7d e8 01                  	cmpl	$1, -24(%ebp)
 8048b67: 74 05                        	je	5 <phase_2+0x26>
 8048b69: e8 8e 09 00 00               	calll	2446 <explode_bomb>
 8048b6e: bb 01 00 00 00               	movl	$1, %ebx
 8048b73: 8d 75 e8                     	leal	-24(%ebp), %esi

 8048b76: 8d 43 01                     	leal	1(%ebx), %eax
 8048b79: 0f af 44 9e fc               	imull	-4(%esi,%ebx,4), %eax
 8048b7e: 39 04 9e                     	cmpl	%eax, (%esi,%ebx,4)
 8048b81: 74 05                        	je	5 <phase_2+0x40>
 8048b83: e8 74 09 00 00               	calll	2420 <explode_bomb>

 8048b88: 43                           	incl	%ebx
 8048b89: 83 fb 05                     	cmpl	$5, %ebx
 8048b8c: 7e e8                        	jle	-24 <phase_2+0x2e>
 8048b8e: 8d 65 d8                     	leal	-40(%ebp), %esp
 8048b91: 5b                           	popl	%ebx
 8048b92: 5e                           	popl	%esi
 8048b93: 89 ec                        	movl	%ebp, %esp
 8048b95: 5d                           	popl	%ebp
 8048b96: c3                           	retl
 8048b97: 90                           	nop

08048b98 phase_3:
 8048b98: 55                           	pushl	%ebp
 8048b99: 89 e5                        	movl	%esp, %ebp
 8048b9b: 83 ec 14                     	subl	$20, %esp
 8048b9e: 53                           	pushl	%ebx
 8048b9f: 8b 55 08                     	movl	8(%ebp), %edx
 8048ba2: 83 c4 f4                     	addl	$-12, %esp
 8048ba5: 8d 45 fc                     	leal	-4(%ebp), %eax
 8048ba8: 50                           	pushl	%eax
 8048ba9: 8d 45 fb                     	leal	-5(%ebp), %eax
 8048bac: 50                           	pushl	%eax
 8048bad: 8d 45 f4                     	leal	-12(%ebp), %eax
 8048bb0: 50                           	pushl	%eax
 8048bb1: 68 de 97 04 08               	pushl	$134518750 # %d %c %d
 8048bb6: 52                           	pushl	%edx
 8048bb7: e8 a4 fc ff ff               	calll	-860 <.plt+0x150>
 8048bbc: 83 c4 20                     	addl	$32, %esp
 8048bbf: 83 f8 02                     	cmpl	$2, %eax
 8048bc2: 7f 05                        	jg	5 <phase_3+0x31>
 8048bc4: e8 33 09 00 00               	calll	2355 <explode_bomb>
# parse input into %d %c %d
0
-4 number (1)
-8 char (at -5)
-c number (0)
-10
-14
-18 %ebx

 8048bc9: 83 7d f4 07                  	cmpl	$7, -12(%ebp)
 8048bcd: 0f 87 b5 00 00 00            	ja	181 <phase_3+0xf0>
0th number <= 7

 8048bd3: 8b 45 f4                     	movl	-12(%ebp), %eax
 8048bd6: ff 24 85 e8 97 04 08         	jmpl	*0x80497e8(,%eax,4)
Eax = 0th number
Suppose 0th number =
0: 0x8048be0
1: 0x8048c00
2: 0x8048c16
3: 0x8048c28
4: 0x8048c40
5: 0x8048c52
6: 0x8048c64
7: 0x8048c76

 8048bdd: 8d 76 00                     	leal	(%esi), %esi

0:
 8048be0: b3 71                        	movb	$113, %bl
 8048be2: 81 7d fc 09 03 00 00         	cmpl	$777, -4(%ebp)
 8048be9: 0f 84 a0 00 00 00            	je	160 <phase_3+0xf7> 0x8048c8f
 8048bef: e8 08 09 00 00               	calll	2312 <explode_bomb>
 8048bf4: e9 96 00 00 00               	jmp	150 <phase_3+0xf7> 0x8048c8f
 8048bf9: 8d b4 26 00 00 00 00         	leal	(%esi,%eiz), %esi

1:
 8048c00: b3 62                        	movb	$98, %bl
 8048c02: 81 7d fc d6 00 00 00         	cmpl	$214, -4(%ebp)
 8048c09: 0f 84 80 00 00 00            	je	128 <phase_3+0xf7>
 8048c0f: e8 e8 08 00 00               	calll	2280 <explode_bomb>
 8048c14: eb 79                        	jmp	121 <phase_3+0xf7>

2:
 8048c16: b3 62                        	movb	$98, %bl
 8048c18: 81 7d fc f3 02 00 00         	cmpl	$755, -4(%ebp)
 8048c1f: 74 6e                        	je	110 <phase_3+0xf7>
 8048c21: e8 d6 08 00 00               	calll	2262 <explode_bomb>
 8048c26: eb 67                        	jmp	103 <phase_3+0xf7>

3:
 8048c28: b3 6b                        	movb	$107, %bl
 8048c2a: 81 7d fc fb 00 00 00         	cmpl	$251, -4(%ebp)
 8048c31: 74 5c                        	je	92 <phase_3+0xf7>
 8048c33: e8 c4 08 00 00               	calll	2244 <explode_bomb>
 8048c38: eb 55                        	jmp	85 <phase_3+0xf7>
 8048c3a: 8d b6 00 00 00 00            	leal	(%esi), %esi

4:
 8048c40: b3 6f                        	movb	$111, %bl
 8048c42: 81 7d fc a0 00 00 00         	cmpl	$160, -4(%ebp)
 8048c49: 74 44                        	je	68 <phase_3+0xf7>
 8048c4b: e8 ac 08 00 00               	calll	2220 <explode_bomb>
 8048c50: eb 3d                        	jmp	61 <phase_3+0xf7>

5:
 8048c52: b3 74                        	movb	$116, %bl
 8048c54: 81 7d fc ca 01 00 00         	cmpl	$458, -4(%ebp)
 8048c5b: 74 32                        	je	50 <phase_3+0xf7>
 8048c5d: e8 9a 08 00 00               	calll	2202 <explode_bomb>
 8048c62: eb 2b                        	jmp	43 <phase_3+0xf7>

6:
 8048c64: b3 76                        	movb	$118, %bl
 8048c66: 81 7d fc 0c 03 00 00         	cmpl	$780, -4(%ebp)
 8048c6d: 74 20                        	je	32 <phase_3+0xf7>
 8048c6f: e8 88 08 00 00               	calll	2184 <explode_bomb>
 8048c74: eb 19                        	jmp	25 <phase_3+0xf7>


7:
 8048c76: b3 62                        	movb	$98, %bl
 8048c78: 81 7d fc 0c 02 00 00         	cmpl	$524, -4(%ebp)
 8048c7f: 74 0e                        	je	14 <phase_3+0xf7>
 8048c81: e8 76 08 00 00               	calll	2166 <explode_bomb>
 8048c86: eb 07                        	jmp	7 <phase_3+0xf7>


What does each of the above do?
Move something into ebx. 

 8048c88: b3 78                        	movb	$120, %bl
 8048c8a: e8 6d 08 00 00               	calll	2157 <explode_bomb>

Jump point:
 8048c8f: 3a 5d fb                     	cmpb	-5(%ebp), %bl     # character must equal bl
 8048c92: 74 05                        	je	5 <phase_3+0x101>
 8048c94: e8 63 08 00 00               	calll	2147 <explode_bomb>
 8048c99: 8b 5d e8                     	movl	-24(%ebp), %ebx
 8048c9c: 89 ec                        	movl	%ebp, %esp
 8048c9e: 5d                           	popl	%ebp
 8048c9f: c3                           	retl

08048ca0 func4:
# Set up
# If 1 <= input, return 1
# eax = input - 1
# eax = func4(input - 1)
# esi = eax
# eax = input - 2
# eax = func4(input - 2)
# add esi and eax, return (input - 1) + (input - 2)
# gets the nth Fibonacci number!

# Set up
 8048ca0: 55                           	pushl	%ebp
 8048ca1: 89 e5                        	movl	%esp, %ebp
 8048ca3: 83 ec 10                     	subl	$16, %esp
 8048ca6: 56                           	pushl	%esi
 8048ca7: 53                           	pushl	%ex
 8048ca8: 8b 5d 08                     	movl	8(%ebp), %ebx
 8048cab: 83 fb 01                     	cmpl	$1, %ebx
 8048cae: 7e 20                        	jle	32 <func4+0x30> 0x8048cd0
 8048cb0: 83 c4 f4                     	addl	$-12, %esp
 8048cb3: 8d 43 ff                     	leal	-1(%ebx), %eax
 8048cb6: 50                           	pushl	%eax
 8048cb7: e8 e4 ff ff ff               	calll	-28 <func4>
 8048cbc: 89 c6                        	movl	%eax, %esi
 8048cbe: 83 c4 f4                     	addl	$-12, %esp
 8048cc1: 8d 43 fe                     	leal	-2(%ebx), %eax
 8048cc4: 50                           	pushl	%eax
 8048cc5: e8 d6 ff ff ff               	calll	-42 <func4>
 8048cca: 01 f0                        	addl	%esi, %eax
 8048ccc: eb 07                        	jmp	7 <func4+0x35>
 8048cce: 89 f6                        	movl	%esi, %esi
 8048cd0: b8 01 00 00 00               	movl	$1, %eax
 8048cd5: 8d 65 e8                     	leal	-24(%ebp), %esp
 8048cd8: 5b                           	popl	%ebx
 8048cd9: 5e                           	popl	%esi
 8048cda: 89 ec                        	movl	%ebp, %esp
 8048cdc: 5d                           	popl	%ebp
 8048cdd: c3                           	retl
 8048cde: 89 f6                        	movl	%esi, %esi

08048ce0 phase_4:
 8048ce0: 55                           	pushl	%ebp
 8048ce1: 89 e5                        	movl	%esp, %ebp
 8048ce3: 83 ec 18                     	subl	$24, %esp
 8048ce6: 8b 55 08                     	movl	8(%ebp), %edx
 8048ce9: 83 c4 fc                     	addl	$-4, %esp
 8048cec: 8d 45 fc                     	leal	-4(%ebp), %eax
 8048cef: 50                           	pushl	%eax
 8048cf0: 68 08 98 04 08               	pushl	$134518792
 8048cf5: 52                           	pushl	%edx
 8048cf6: e8 65 fb ff ff               	calll	-1179 <.plt+0x150>
 8048cfb: 83 c4 10                     	addl	$16, %esp
 8048cfe: 83 f8 01                     	cmpl	$1, %eax
 8048d01: 75 06                        	jne	6 <phase_4+0x29>
 8048d03: 83 7d fc 00                  	cmpl	$0, -4(%ebp)
 8048d07: 7f 05                        	jg	5 <phase_4+0x2e>
 8048d09: e8 ee 07 00 00               	calll	2030 <explode_bomb>
 8048d0e: 83 c4 f4                     	addl	$-12, %esp
 8048d11: 8b 45 fc                     	movl	-4(%ebp), %eax
 8048d14: 50                           	pushl	%eax
 8048d15: e8 86 ff ff ff               	calll	-122 <func4>

# Call func4 with (negative number)
0
-4 input number
-8
-c
-10
-14
-18
-1c
-20
-24
-28
-2c input number



 8048d1a: 83 c4 10                     	addl	$16, %esp
 8048d1d: 83 f8 37                     	cmpl	$55, %eax
 8048d20: 74 05                        	je	5 <phase_4+0x47>
 8048d22: e8 d5 07 00 00               	calll	2005 <explode_bomb>
 8048d27: 89 ec                        	movl	%ebp, %esp
 8048d29: 5d                           	popl	%ebp
 8048d2a: c3                           	retl
 8048d2b: 90                           	nop

08048d2c phase_5:
# set up
 8048d2c: 55                           	pushl	%ebp
 8048d2d: 89 e5                        	movl	%esp, %ebp
 8048d2f: 83 ec 10                     	subl	$16, %esp
 8048d32: 56                           	pushl	%esi
 8048d33: 53                           	pushl	%ebx
# %ebx = input
 8048d34: 8b 5d 08                     	movl	8(%ebp), %ebx
 8048d37: 83 c4 f4                     	addl	$-12, %esp
 8048d3a: 53                           	pushl	%ebx
# string length(input)
 8048d3b: e8 d8 02 00 00               	calll	728 <string_length>
 8048d40: 83 c4 10                     	addl	$16, %esp
$ jump if str length(input) == 6 otherwise explode.
 8048d43: 83 f8 06                     	cmpl	$6, %eax
 8048d46: 74 05                        	je	5 <phase_5+0x21>
 8048d48: e8 af 07 00 00               	calll	1967 <explode_bomb>
 
# zero out edx, ecx = input
 8048d4d: 31 d2                        	xorl	%edx, %edx
 8048d4f: 8d 4d f8                     	leal	-8(%ebp), %ecx

# esi = 0x804b220 #isrveawhobpnutfg
# 14, 0, 5, 11, 12, 1

 8048d52: be 20 b2 04 08               	movl	$134525472, %esi

# begin loop
# put first letter of string in eax
 8048d57: 8a 04 1a                     	movb	(%edx,%ebx), %al
 8048d5a: 24 0f                        	andb	$15, %al
 8048d5c: 0f be c0                     	movsbl	%al, %eax
# select a char from isrveawhobpnutfg
 8048d5f: 8a 04 30                     	movb	(%eax,%esi), %al
# mput that char in input
 8048d62: 88 04 0a                     	movb	%al, (%edx,%ecx)
# increment edx
 8048d65: 42                           	incl	%edx
# if edx <= 5 repeat loop
 8048d66: 83 fa 05                     	cmpl	$5, %edx
 8048d69: 7e ec                        	jle	-20 <phase_5+0x2b>
# zero out last two bytes of str pointer
 8048d6b: c6 45 fe 00                  	movb	$0, -2(%ebp)
# Pass if eax = 0x804980b #giants
 8048d6f: 83 c4 f8                     	addl	$-8, %esp
 8048d72: 68 0b 98 04 08               	pushl	$134518795
 8048d77: 8d 45 f8                     	leal	-8(%ebp), %eax
 8048d7a: 50                           	pushl	%eax
 8048d7b: e8 b0 02 00 00               	calll	688 <strings_not_equal>
 8048d80: 83 c4 10                     	addl	$16, %esp
 8048d83: 85 c0                        	testl	%eax, %eax
 8048d85: 74 05                        	je	5 <phase_5+0x60>
 8048d87: e8 70 07 00 00               	calll	1904 <explode_bomb>
 8048d8c: 8d 65 e8                     	leal	-24(%ebp), %esp
 8048d8f: 5b                           	popl	%ebx
 8048d90: 5e                           	popl	%esi
 8048d91: 89 ec                        	movl	%ebp, %esp
 8048d93: 5d                           	popl	%ebp
 8048d94: c3                           	retl
 8048d95: 8d 76 00                     	leal	(%esi), %esi

08048d98 phase_6:
 0
-4 num 5
-8 num 4
-c num 3
10 num 2
14 num 1
18 num 0
1c
20
24
28
2c
30
34 253
38
3c
40
44
48
4c
50 edi
54 esi

Esi = 0x-54
Eax = six numbers [x]
Decrement eax, explode if eax < 5

Edx = input string

# prep
 8048d98: 55                           	pushl	%ebp
 8048d99: 89 e5                        	movl	%esp, %ebp
 8048d9b: 83 ec 4c                     	subl	$76, %esp
 8048d9e: 57                           	pushl	%edi
 8048d9f: 56                           	pushl	%esi
 8048da0: 53                           	pushl	%ebx
# edx = arg
 8048da1: 8b 55 08                     	movl	8(%ebp), %edx
# Move 0x804b26c (253) to -52
 8048da4: c7 45 cc 6c b2 04 08         	movl	$134525548, -52(%ebp)
 8048dab: 83 c4 f8                     	addl	$-8, %esp
 8048dae: 8d 45 e8                     	leal	-24(%ebp), %eax
 8048db1: 50                           	pushl	%eax
 8048db2: 52                           	pushl	%edx
 8048db3: e8 20 02 00 00               	calll	544 <read_six_numbers>
# read six numbers

 8048db8: 31 ff                        	xorl	%edi, %edi
 8048dba: 83 c4 10                     	addl	$16, %esp
 8048dbd: 8d 76 00                     	leal	(%esi), %esi
 8048dc0: 8d 45 e8                     	leal	-24(%ebp), %eax
 8048dc3: 8b 04 b8                     	movl	(%eax,%edi,4), %eax
 8048dc6: 48                           	decl	%eax
 8048dc7: 83 f8 05                     	cmpl	$5, %eax
# edi = 0
# eax = &num 0
# eax += edi*4
# eax--
# jump if 5 <= eax (unsigned)
# ebx = edi+1
# if 5 > ebx: jump to 8048dfc
# eax = edi*4
# esi = 
$ begin loop 2
# -0x48 = eax
# eax = edx+esi 
# if esi + ebx*4 == eax: explode
# ebx++
# if 5 <= ebx: jump to 0x8048de6 (begin loop 2)

 8048dca: 76 05                        	jbe	5 <phase_6+0x39>
 8048dcc: e8 2b 07 00 00               	calll	1835 <explode_bomb>
 8048dd1: 8d 5f 01                     	leal	1(%edi), %ebx
 8048dd4: 83 fb 05                     	cmpl	$5, %ebx
 8048dd7: 7f 23                        	jg	35 <phase_6+0x64>
 8048dd9: 8d 04 bd 00 00 00 00         	leal	(,%edi,4), %eax
 8048de0: 89 45 c8                     	movl	%eax, -56(%ebp)
 8048de3: 8d 75 e8                     	leal	-24(%ebp), %esi
 8048de6: 8b 55 c8                     	movl	-56(%ebp), %edx
 8048de9: 8b 04 32                     	movl	(%edx,%esi), %eax
 8048dec: 3b 04 9e                     	cmpl	(%esi,%ebx,4), %eax
 8048def: 75 05                        	jne	5 <phase_6+0x5e>
 8048df1: e8 06 07 00 00               	calll	1798 <explode_bomb>
 8048df6: 43                           	incl	%ebx
 8048df7: 83 fb 05                     	cmpl	$5, %ebx
 8048dfa: 7e ea                        	jle	-22 <phase_6+0x4e>


 8048dfc: 47                           	incl	%edi
 8048dfd: 83 ff 05                     	cmpl	$5, %edi
 8048e00: 7e be                        	jle	-66 <phase_6+0x28>
 8048e02: 31 ff                        	xorl	%edi, %edi
 8048e04: 8d 4d e8                     	leal	-24(%ebp), %ecx
 8048e07: 8d 45 d0                     	leal	-48(%ebp), %eax
 8048e0a: 89 45 c4                     	movl	%eax, -60(%ebp)
 8048e0d: 8d 76 00                     	leal	(%esi), %esi
 8048e10: 8b 75 cc                     	movl	-52(%ebp), %esi
 8048e13: bb 01 00 00 00               	movl	$1, %ebx
 8048e18: 8d 04 bd 00 00 00 00         	leal	(,%edi,4), %eax
 8048e1f: 89 c2                        	movl	%eax, %edx
 8048e21: 3b 1c 08                     	cmpl	(%eax,%ecx), %ebx
 8048e24: 7d 12                        	jge	18 <phase_6+0xa0>
 8048e26: 8b 04 0a                     	movl	(%edx,%ecx), %eax
 8048e29: 8d b4 26 00 00 00 00         	leal	(%esi,%eiz), %esi
 8048e30: 8b 76 08                     	movl	8(%esi), %esi
 8048e33: 43                           	incl	%ebx
 8048e34: 39 c3                        	cmpl	%eax, %ebx
 8048e36: 7c f8                        	jl	-8 <phase_6+0x98>
 8048e38: 8b 55 c4                     	movl	-60(%ebp), %edx
 8048e3b: 89 34 ba                     	movl	%esi, (%edx,%edi,4)
 8048e3e: 47                           	incl	%edi
 8048e3f: 83 ff 05                     	cmpl	$5, %edi
 8048e42: 7e cc                        	jle	-52 <phase_6+0x78>
 8048e44: 8b 75 d0                     	movl	-48(%ebp), %esi
 8048e47: 89 75 cc                     	movl	%esi, -52(%ebp)
 8048e4a: bf 01 00 00 00               	movl	$1, %edi
 8048e4f: 8d 55 d0                     	leal	-48(%ebp), %edx
 8048e52: 8b 04 ba                     	movl	(%edx,%edi,4), %eax
 8048e55: 89 46 08                     	movl	%eax, 8(%esi)
 8048e58: 89 c6                        	movl	%eax, %esi
 8048e5a: 47                           	incl	%edi
 8048e5b: 83 ff 05                     	cmpl	$5, %edi
 8048e5e: 7e f2                        	jle	-14 <phase_6+0xba>
 8048e60: c7 46 08 00 00 00 00         	movl	$0, 8(%esi)
 8048e67: 8b 75 cc                     	movl	-52(%ebp), %esi
 8048e6a: 31 ff                        	xorl	%edi, %edi
 8048e6c: 8d 74 26 00                  	leal	(%esi,%eiz), %esi
 8048e70: 8b 56 08                     	movl	8(%esi), %edx
 8048e73: 8b 06                        	movl	(%esi), %eax
 8048e75: 3b 02                        	cmpl	(%edx), %eax
 8048e77: 7d 05                        	jge	5 <phase_6+0xe6>
 8048e79: e8 7e 06 00 00               	calll	1662 <explode_bomb>
 8048e7e: 8b 76 08                     	movl	8(%esi), %esi
 8048e81: 47                           	incl	%edi
 8048e82: 83 ff 04                     	cmpl	$4, %edi
 8048e85: 7e e9                        	jle	-23 <phase_6+0xd8>
 8048e87: 8d 65 a8                     	leal	-88(%ebp), %esp
 8048e8a: 5b                           	popl	%ebx
 8048e8b: 5e                           	popl	%esi
 8048e8c: 5f                           	popl	%edi
 8048e8d: 89 ec                        	movl	%ebp, %esp
 8048e8f: 5d                           	popl	%ebp
 8048e90: c3                           	retl
 8048e91: 8d 76 00                     	leal	(%esi), %esi

08048e94 fun7:
 8048e94: 55                           	pushl	%ebp
 8048e95: 89 e5                        	movl	%esp, %ebp
 8048e97: 83 ec 08                     	subl	$8, %esp
 8048e9a: 8b 55 08                     	movl	8(%ebp), %edx
 8048e9d: 8b 45 0c                     	movl	12(%ebp), %eax
 8048ea0: 85 d2                        	testl	%edx, %edx
 8048ea2: 75 0c                        	jne	12 <fun7+0x1c>
 8048ea4: b8 ff ff ff ff               	movl	$4294967295, %eax
 8048ea9: eb 37                        	jmp	55 <fun7+0x4e>
 8048eab: 90                           	nop
 8048eac: 8d 74 26 00                  	leal	(%esi,%eiz), %esi
 8048eb0: 3b 02                        	cmpl	(%edx), %eax
 8048eb2: 7d 11                        	jge	17 <fun7+0x31>
 8048eb4: 83 c4 f8                     	addl	$-8, %esp
 8048eb7: 50                           	pushl	%eax
 8048eb8: 8b 42 04                     	movl	4(%edx), %eax
 8048ebb: 50                           	pushl	%eax
 8048ebc: e8 d3 ff ff ff               	calll	-45 <fun7>
 8048ec1: 01 c0                        	addl	%eax, %eax
 8048ec3: eb 1d                        	jmp	29 <fun7+0x4e>
 8048ec5: 3b 02                        	cmpl	(%edx), %eax
 8048ec7: 74 17                        	je	23 <fun7+0x4c>
 8048ec9: 83 c4 f8                     	addl	$-8, %esp
 8048ecc: 50                           	pushl	%eax
 8048ecd: 8b 42 08                     	movl	8(%edx), %eax
 8048ed0: 50                           	pushl	%eax
 8048ed1: e8 be ff ff ff               	calll	-66 <fun7>
 8048ed6: 01 c0                        	addl	%eax, %eax
 8048ed8: 40                           	incl	%eax
 8048ed9: eb 07                        	jmp	7 <fun7+0x4e>
 8048edb: 90                           	nop
 8048edc: 8d 74 26 00                  	leal	(%esi,%eiz), %esi
 8048ee0: 31 c0                        	xorl	%eax, %eax
 8048ee2: 89 ec                        	movl	%ebp, %esp
 8048ee4: 5d                           	popl	%ebp
 8048ee5: c3                           	retl
 8048ee6: 89 f6                        	movl	%esi, %esi

08048ee8 secret_phase:
 8048ee8: 55                           	pushl	%ebp
 8048ee9: 89 e5                        	movl	%esp, %ebp
 8048eeb: 83 ec 14                     	subl	$20, %esp
 8048eee: 53                           	pushl	%ebx
 8048eef: e8 08 03 00 00               	calll	776 <read_line>
 8048ef4: 6a 00                        	pushl	$0
 8048ef6: 6a 0a                        	pushl	$10
 8048ef8: 6a 00                        	pushl	$0
 8048efa: 50                           	pushl	%eax
 8048efb: e8 f0 f8 ff ff               	calll	-1808 <.plt+0xe0>
 8048f00: 83 c4 10                     	addl	$16, %esp
 8048f03: 89 c3                        	movl	%eax, %ebx
 8048f05: 8d 43 ff                     	leal	-1(%ebx), %eax
 8048f08: 3d e8 03 00 00               	cmpl	$1000, %eax
 8048f0d: 76 05                        	jbe	5 <secret_phase+0x2c>
 8048f0f: e8 e8 05 00 00               	calll	1512 <explode_bomb>
 8048f14: 83 c4 f8                     	addl	$-8, %esp
 8048f17: 53                           	pushl	%ebx
 8048f18: 68 20 b3 04 08               	pushl	$134525728
 8048f1d: e8 72 ff ff ff               	calll	-142 <fun7>
 8048f22: 83 c4 10                     	addl	$16, %esp
 8048f25: 83 f8 07                     	cmpl	$7, %eax
 8048f28: 74 05                        	je	5 <secret_phase+0x47>
 8048f2a: e8 cd 05 00 00               	calll	1485 <explode_bomb>
 8048f2f: 83 c4 f4                     	addl	$-12, %esp
 8048f32: 68 20 98 04 08               	pushl	$134518816
 8048f37: e8 d4 f8 ff ff               	calll	-1836 <.plt+0x100>
 8048f3c: e8 eb 05 00 00               	calll	1515 <phase_defused>
 8048f41: 8b 5d e8                     	movl	-24(%ebp), %ebx
 8048f44: 89 ec                        	movl	%ebp, %esp
 8048f46: 5d                           	popl	%ebp
 8048f47: c3                           	retl
 8048f48: 90                           	nop
 8048f49: 90                           	nop
 8048f4a: 90                           	nop
 8048f4b: 90                           	nop
 8048f4c: 90                           	nop
 8048f4d: 90                           	nop
 8048f4e: 90                           	nop
 8048f4f: 90                           	nop

08048f50 sig_handler:
 8048f50: 55                           	pushl	%ebp
 8048f51: 89 e5                        	movl	%esp, %ebp
 8048f53: 83 ec 08                     	subl	$8, %esp
 8048f56: 83 c4 f4                     	addl	$-12, %esp
 8048f59: 68 c0 9a 04 08               	pushl	$134519488
 8048f5e: e8 ad f8 ff ff               	calll	-1875 <.plt+0x100>
 8048f63: 83 c4 f4                     	addl	$-12, %esp
 8048f66: 6a 03                        	pushl	$3
 8048f68: e8 73 f8 ff ff               	calll	-1933 <.plt+0xd0>
 8048f6d: 83 c4 20                     	addl	$32, %esp
 8048f70: 83 c4 f4                     	addl	$-12, %esp
 8048f73: 68 f9 9a 04 08               	pushl	$134519545
 8048f78: e8 93 f8 ff ff               	calll	-1901 <.plt+0x100>
 8048f7d: 83 c4 f4                     	addl	$-12, %esp
 8048f80: a1 40 b6 04 08               	movl	134526528, %eax
 8048f85: 50                           	pushl	%eax
 8048f86: e8 f5 f7 ff ff               	calll	-2059 <.plt+0x70>
 8048f8b: 83 c4 20                     	addl	$32, %esp
 8048f8e: 83 c4 f4                     	addl	$-12, %esp
 8048f91: 6a 01                        	pushl	$1
 8048f93: e8 48 f8 ff ff               	calll	-1976 <.plt+0xd0>
 8048f98: 83 c4 f4                     	addl	$-12, %esp
 8048f9b: 68 01 9b 04 08               	pushl	$134519553
 8048fa0: e8 6b f8 ff ff               	calll	-1941 <.plt+0x100>
 8048fa5: 83 c4 20                     	addl	$32, %esp
 8048fa8: 83 c4 f4                     	addl	$-12, %esp
 8048fab: 6a 10                        	pushl	$16
 8048fad: e8 9e f8 ff ff               	calll	-1890 <.plt+0x140>
 8048fb2: 89 f6                        	movl	%esi, %esi

08048fb4 invalid_phase:
 8048fb4: 55                           	pushl	%ebp
 8048fb5: 89 e5                        	movl	%esp, %ebp
 8048fb7: 83 ec 08                     	subl	$8, %esp
 8048fba: 8b 45 08                     	movl	8(%ebp), %eax
 8048fbd: 83 c4 f8                     	addl	$-8, %esp
 8048fc0: 50                           	pushl	%eax
 8048fc1: 68 0a 9b 04 08               	pushl	$134519562
 8048fc6: e8 45 f8 ff ff               	calll	-1979 <.plt+0x100>
 8048fcb: 83 c4 f4                     	addl	$-12, %esp
 8048fce: 6a 08                        	pushl	$8
 8048fd0: e8 7b f8 ff ff               	calll	-1925 <.plt+0x140>
 8048fd5: 8d 76 00                     	leal	(%esi), %esi

# read five numbers given (string, array)
08048fd8 read_six_numbers:
 8048fd8: 55                           	pushl	%ebp
 8048fd9: 89 e5                        	movl	%esp, %ebp
 8048fdb: 83 ec 08                     	subl	$8, %esp
 8048fde: 8b 4d 08                     	movl	8(%ebp), %ecx
 8048fe1: 8b 55 0c                     	movl	12(%ebp), %edx
 8048fe4: 8d 42 14                     	leal	20(%edx), %eax
 8048fe7: 50                           	pushl	%eax
 8048fe8: 8d 42 10                     	leal	16(%edx), %eax
 8048feb: 50                           	pushl	%eax
 8048fec: 8d 42 0c                     	leal	12(%edx), %eax
 8048fef: 50                           	pushl	%eax
 8048ff0: 8d 42 08                     	leal	8(%edx), %eax
 8048ff3: 50                           	pushl	%eax
 8048ff4: 8d 42 04                     	leal	4(%edx), %eax
 8048ff7: 50                           	pushl	%eax
 8048ff8: 52                           	pushl	%edx
 8048ff9: 68 1b 9b 04 08               	pushl	$134519579
 8048ffe: 51                           	pushl	%ecx
 8048fff: e8 5c f8 ff ff               	calll	-1956 <.plt+0x150>
 8049004: 83 c4 20                     	addl	$32, %esp
 8049007: 83 f8 05                     	cmpl	$5, %eax
 804900a: 7f 05                        	jg	5 <read_six_numbers+0x39>
 804900c: e8 eb 04 00 00               	calll	1259 <explode_bomb>
 8049011: 89 ec                        	movl	%ebp, %esp
 8049013: 5d                           	popl	%ebp
 8049014: c3                           	retl
 8049015: 8d 76 00                     	leal	(%esi), %esi

08049018 string_length:
 8049018: 55                           	pushl	%ebp
 8049019: 89 e5                        	movl	%esp, %ebp
 804901b: 8b 55 08                     	movl	8(%ebp), %edx
 804901e: 31 c0                        	xorl	%eax, %eax
 8049020: 80 3a 00                     	cmpb	$0, (%edx)
 8049023: 74 07                        	je	7 <string_length+0x14>
 8049025: 42                           	incl	%edx
 8049026: 40                           	incl	%eax
 8049027: 80 3a 00                     	cmpb	$0, (%edx)
 804902a: 75 f9                        	jne	-7 <string_length+0xd>
 804902c: 89 ec                        	movl	%ebp, %esp
 804902e: 5d                           	popl	%ebp
 804902f: c3                           	retl

08049030 strings_not_equal:
 8049030: 55                           	pushl	%ebp
 8049031: 89 e5                        	movl	%esp, %ebp
 8049033: 83 ec 0c                     	subl	$12, %esp
 8049036: 57                           	pushl	%edi
 8049037: 56                           	pushl	%esi
 8049038: 53                           	pushl	%ebx
 8049039: 8b 75 08                     	movl	8(%ebp), %esi
 804903c: 8b 7d 0c                     	movl	12(%ebp), %edi
 804903f: 83 c4 f4                     	addl	$-12, %esp
 8049042: 56                           	pushl	%esi
 8049043: e8 d0 ff ff ff               	calll	-48 <string_length>
 8049048: 89 c3                        	movl	%eax, %ebx
 804904a: 83 c4 f4                     	addl	$-12, %esp
 804904d: 57                           	pushl	%edi
 804904e: e8 c5 ff ff ff               	calll	-59 <string_length>
 8049053: 39 c3                        	cmpl	%eax, %ebx
 8049055: 74 09                        	je	9 <strings_not_equal+0x30>
 8049057: b8 01 00 00 00               	movl	$1, %eax
 804905c: eb 21                        	jmp	33 <strings_not_equal+0x4f>
 804905e: 89 f6                        	movl	%esi, %esi
 8049060: 89 f2                        	movl	%esi, %edx
 8049062: 89 f9                        	movl	%edi, %ecx
 8049064: 80 3a 00                     	cmpb	$0, (%edx)
 8049067: 74 14                        	je	20 <strings_not_equal+0x4d>
 8049069: 8d b4 26 00 00 00 00         	leal	(%esi,%eiz), %esi
 8049070: 8a 02                        	movb	(%edx), %al
 8049072: 3a 01                        	cmpb	(%ecx), %al
 8049074: 75 e1                        	jne	-31 <strings_not_equal+0x27>
 8049076: 42                           	incl	%edx
 8049077: 41                           	incl	%ecx
 8049078: 80 3a 00                     	cmpb	$0, (%edx)
 804907b: 75 f3                        	jne	-13 <strings_not_equal+0x40>
 804907d: 31 c0                        	xorl	%eax, %eax
 804907f: 8d 65 e8                     	leal	-24(%ebp), %esp
 8049082: 5b                           	popl	%ebx
 8049083: 5e                           	popl	%esi
 8049084: 5f                           	popl	%edi
 8049085: 89 ec                        	movl	%ebp, %esp
 8049087: 5d                           	popl	%ebp
 8049088: c3                           	retl
 8049089: 8d 76 00                     	leal	(%esi), %esi

0804908c open_clientfd:
 804908c: 55                           	pushl	%ebp
 804908d: 89 e5                        	movl	%esp, %ebp
 804908f: 83 ec 20                     	subl	$32, %esp
 8049092: 56                           	pushl	%esi
 8049093: 53                           	pushl	%ebx
 8049094: 83 c4 fc                     	addl	$-4, %esp
 8049097: 6a 00                        	pushl	$0
 8049099: 6a 01                        	pushl	$1
 804909b: 6a 02                        	pushl	$2
 804909d: e8 0e f8 ff ff               	calll	-2034 <.plt+0x1a0>
 80490a2: 89 c6                        	movl	%eax, %esi
 80490a4: 83 c4 10                     	addl	$16, %esp
 80490a7: 85 f6                        	testl	%esi, %esi
 80490a9: 7d 17                        	jge	23 <open_clientfd+0x36>
 80490ab: 83 c4 f4                     	addl	$-12, %esp
 80490ae: 68 2d 9b 04 08               	pushl	$134519597
 80490b3: e8 58 f7 ff ff               	calll	-2216 <.plt+0x100>
 80490b8: 83 c4 f4                     	addl	$-12, %esp
 80490bb: 6a 08                        	pushl	$8
 80490bd: e8 8e f7 ff ff               	calll	-2162 <.plt+0x140>
 80490c2: 83 c4 f4                     	addl	$-12, %esp
 80490c5: 8b 45 08                     	movl	8(%ebp), %eax
 80490c8: 50                           	pushl	%eax
 80490c9: e8 62 f7 ff ff               	calll	-2206 <.plt+0x120>
 80490ce: 89 c3                        	movl	%eax, %ebx
 80490d0: 83 c4 10                     	addl	$16, %esp
 80490d3: 85 db                        	testl	%ebx, %ebx
 80490d5: 75 19                        	jne	25 <open_clientfd+0x64>
 80490d7: 83 c4 f4                     	addl	$-12, %esp
 80490da: 68 3c 9b 04 08               	pushl	$134519612
 80490df: e8 2c f7 ff ff               	calll	-2260 <.plt+0x100>
 80490e4: 83 c4 f4                     	addl	$-12, %esp
 80490e7: 6a 08                        	pushl	$8
 80490e9: e8 62 f7 ff ff               	calll	-2206 <.plt+0x140>
 80490ee: 89 f6                        	movl	%esi, %esi
 80490f0: 83 c4 f8                     	addl	$-8, %esp
 80490f3: 6a 10                        	pushl	$16
 80490f5: 8d 45 f0                     	leal	-16(%ebp), %eax
 80490f8: 50                           	pushl	%eax
 80490f9: e8 42 f7 ff ff               	calll	-2238 <.plt+0x130>
 80490fe: 66 c7 45 f0 02 00            	movw	$2, -16(%ebp)
 8049104: 83 c4 fc                     	addl	$-4, %esp
 8049107: 8b 43 0c                     	movl	12(%ebx), %eax
 804910a: 50                           	pushl	%eax
 804910b: 8d 45 f4                     	leal	-12(%ebp), %eax
 804910e: 50                           	pushl	%eax
 804910f: 8b 43 10                     	movl	16(%ebx), %eax
 8049112: 8b 00                        	movl	(%eax), %eax
 8049114: 50                           	pushl	%eax
 8049115: e8 76 f6 ff ff               	calll	-2442 <.plt+0x80>
 804911a: 83 c4 20                     	addl	$32, %esp
 804911d: 8b 45 0c                     	movl	12(%ebp), %eax
 8049120: 66 c1 c8 08                  	rorw	$8, %ax
 8049124: 66 89 45 f2                  	movw	%ax, -14(%ebp)
 8049128: 83 c4 fc                     	addl	$-4, %esp
 804912b: 6a 10                        	pushl	$16
 804912d: 8d 45 f0                     	leal	-16(%ebp), %eax
 8049130: 50                           	pushl	%eax
 8049131: 56                           	pushl	%esi
 8049132: e8 39 f7 ff ff               	calll	-2247 <.plt+0x160>
 8049137: 83 c4 10                     	addl	$16, %esp
 804913a: 85 c0                        	testl	%eax, %eax
 804913c: 7d 17                        	jge	23 <open_clientfd+0xc9>
 804913e: 83 c4 f4                     	addl	$-12, %esp
 8049141: 68 4b 9b 04 08               	pushl	$134519627
 8049146: e8 c5 f6 ff ff               	calll	-2363 <.plt+0x100>
 804914b: 83 c4 f4                     	addl	$-12, %esp
 804914e: 6a 08                        	pushl	$8
 8049150: e8 fb f6 ff ff               	calll	-2309 <.plt+0x140>
 8049155: 89 f0                        	movl	%esi, %eax
 8049157: 8d 65 d8                     	leal	-40(%ebp), %esp
 804915a: 5b                           	popl	%ebx
 804915b: 5e                           	popl	%esi
 804915c: 89 ec                        	movl	%ebp, %esp
 804915e: 5d                           	popl	%ebp
 804915f: c3                           	retl

08049160 initialize_bomb:
 8049160: 55                           	pushl	%ebp
 8049161: 89 e5                        	movl	%esp, %ebp
 8049163: 83 ec 08                     	subl	$8, %esp
 8049166: 83 c4 f8                     	addl	$-8, %esp
 8049169: 68 50 8f 04 08               	pushl	$134516560
 804916e: 6a 02                        	pushl	$2
 8049170: e8 fb f5 ff ff               	calll	-2565 <.plt+0x60>
 8049175: 89 ec                        	movl	%ebp, %esp
 8049177: 5d                           	popl	%ebp
 8049178: c3                           	retl
 8049179: 8d 76 00                     	leal	(%esi), %esi

0804917c blank_line:
 804917c: 55                           	pushl	%ebp
 804917d: 89 e5                        	movl	%esp, %ebp
 804917f: 8b 55 08                     	movl	8(%ebp), %edx
 8049182: 80 3a 00                     	cmpb	$0, (%edx)
 8049185: 74 1e                        	je	30 <blank_line+0x29>
 8049187: 8b 0d 44 b6 04 08            	movl	134526532, %ecx
 804918d: 8d 76 00                     	leal	(%esi), %esi
 8049190: 0f be 02                     	movsbl	(%edx), %eax
 8049193: 42                           	incl	%edx
 8049194: f6 44 41 01 20               	testb	$32, 1(%ecx,%eax,2)
 8049199: 75 05                        	jne	5 <blank_line+0x24>
 804919b: 31 c0                        	xorl	%eax, %eax
 804919d: eb 0b                        	jmp	11 <blank_line+0x2e>
 804919f: 90                           	nop
 80491a0: 80 3a 00                     	cmpb	$0, (%edx)
 80491a3: 75 eb                        	jne	-21 <blank_line+0x14>
 80491a5: b8 01 00 00 00               	movl	$1, %eax
 80491aa: 89 ec                        	movl	%ebp, %esp
 80491ac: 5d                           	popl	%ebp
 80491ad: c3                           	retl
 80491ae: 89 f6                        	movl	%esi, %esi

080491b0 skip:
 80491b0: 55                           	pushl	%ebp
 80491b1: 89 e5                        	movl	%esp, %ebp
 80491b3: 83 ec 14                     	subl	$20, %esp
 80491b6: 53                           	pushl	%ebx
 80491b7: 83 c4 fc                     	addl	$-4, %esp
 80491ba: a1 64 b6 04 08               	movl	134526564, %eax
 80491bf: 50                           	pushl	%eax
 80491c0: 6a 50                        	pushl	$80
 80491c2: a1 80 b4 04 08               	movl	134526080, %eax
 80491c7: 8d 04 80                     	leal	(%eax,%eax,4), %eax
 80491ca: c1 e0 04                     	shll	$4, %eax
 80491cd: 05 80 b6 04 08               	addl	$134526592, %eax
 80491d2: 50                           	pushl	%eax
 80491d3: e8 f8 f5 ff ff               	calll	-2568 <.plt+0xc0>
 80491d8: 89 c3                        	movl	%eax, %ebx
 80491da: 83 c4 10                     	addl	$16, %esp
 80491dd: 85 db                        	testl	%ebx, %ebx
 80491df: 74 10                        	je	16 <skip+0x41>
 80491e1: 83 c4 f4                     	addl	$-12, %esp
 80491e4: 53                           	pushl	%ebx
 80491e5: e8 92 ff ff ff               	calll	-110 <blank_line>
 80491ea: 83 c4 10                     	addl	$16, %esp
 80491ed: 85 c0                        	testl	%eax, %eax
 80491ef: 75 c6                        	jne	-58 <skip+0x7>
 80491f1: 89 d8                        	movl	%ebx, %eax
 80491f3: 8b 5d e8                     	movl	-24(%ebp), %ebx
 80491f6: 89 ec                        	movl	%ebp, %esp
 80491f8: 5d                           	popl	%ebp
 80491f9: c3                           	retl
 80491fa: 89 f6                        	movl	%esi, %esi

080491fc read_line:
 80491fc: 55                           	pushl	%ebp
 80491fd: 89 e5                        	movl	%esp, %ebp
 80491ff: 83 ec 14                     	subl	$20, %esp
 8049202: 57                           	pushl	%edi
 8049203: e8 a8 ff ff ff               	calll	-88 <skip>
 8049208: 85 c0                        	testl	%eax, %eax
 804920a: 75 53                        	jne	83 <read_line+0x63>
 804920c: a1 64 b6 04 08               	movl	134526564, %eax
 8049211: 3b 05 48 b6 04 08            	cmpl	134526536, %eax
 8049217: 74 31                        	je	49 <read_line+0x4e>
 8049219: 83 c4 f4                     	addl	$-12, %esp
 804921c: 68 7f 9b 04 08               	pushl	$134519679
 8049221: e8 3a f5 ff ff               	calll	-2758 <.plt+0x50>
 8049226: 83 c4 10                     	addl	$16, %esp
 8049229: 85 c0                        	testl	%eax, %eax
 804922b: 74 0a                        	je	10 <read_line+0x3b>
 804922d: 83 c4 f4                     	addl	$-12, %esp
 8049230: 6a 00                        	pushl	$0
 8049232: e8 19 f6 ff ff               	calll	-2535 <.plt+0x140>
 8049237: a1 48 b6 04 08               	movl	134526536, %eax
 804923c: a3 64 b6 04 08               	movl	%eax, 134526564
 8049241: e8 6a ff ff ff               	calll	-150 <skip>
 8049246: 85 c0                        	testl	%eax, %eax
 8049248: 75 15                        	jne	21 <read_line+0x63>
 804924a: 83 c4 f4                     	addl	$-12, %esp
 804924d: 68 60 9b 04 08               	pushl	$134519648
 8049252: e8 b9 f5 ff ff               	calll	-2631 <.plt+0x100>
 8049257: e8 a0 02 00 00               	calll	672 <explode_bomb>
 804925c: 83 c4 10                     	addl	$16, %esp
 804925f: a1 80 b4 04 08               	movl	134526080, %eax
 8049264: 8d 04 80                     	leal	(%eax,%eax,4), %eax
 8049267: c1 e0 04                     	shll	$4, %eax
 804926a: 8d b8 80 b6 04 08            	leal	134526592(%eax), %edi
 8049270: b0 00                        	movb	$0, %al
 8049272: fc                           	cld
 8049273: b9 ff ff ff ff               	movl	$4294967295, %ecx
 8049278: f2 ae                        	repne		scasb	%es:(%edi), %al
 804927a: 89 c8                        	movl	%ecx, %eax
 804927c: f7 d0                        	notl	%eax
 804927e: 8d 78 ff                     	leal	-1(%eax), %edi
 8049281: 83 ff 4f                     	cmpl	$79, %edi
 8049284: 75 12                        	jne	18 <read_line+0x9c>
 8049286: 83 c4 f4                     	addl	$-12, %esp
 8049289: 68 8a 9b 04 08               	pushl	$134519690
 804928e: e8 7d f5 ff ff               	calll	-2691 <.plt+0x100>
 8049293: e8 64 02 00 00               	calll	612 <explode_bomb>
 8049298: a1 80 b4 04 08               	movl	134526080, %eax
 804929d: 8d 04 80                     	leal	(%eax,%eax,4), %eax
 80492a0: c1 e0 04                     	shll	$4, %eax
 80492a3: c6 84 07 7f b6 04 08 00      	movb	$0, 134526591(%edi,%eax)
 80492ab: 05 80 b6 04 08               	addl	$134526592, %eax
 80492b0: ff 05 80 b4 04 08            	incl	134526080
 80492b6: 8b 7d e8                     	movl	-24(%ebp), %edi
 80492b9: 89 ec                        	movl	%ebp, %esp
 80492bb: 5d                           	popl	%ebp
 80492bc: c3                           	retl
 80492bd: 8d 76 00                     	leal	(%esi), %esi

080492c0 send_msg:
 80492c0: 55                           	pushl	%ebp
 80492c1: 89 e5                        	movl	%esp, %ebp
 80492c3: 83 ec 5c                     	subl	$92, %esp
 80492c6: 57                           	pushl	%edi
 80492c7: 56                           	pushl	%esi
 80492c8: 53                           	pushl	%ebx
 80492c9: 83 c4 f4                     	addl	$-12, %esp
 80492cc: 6a 00                        	pushl	$0
 80492ce: e8 bd f5 ff ff               	calll	-2627 <.plt+0x180>
 80492d3: 89 c7                        	movl	%eax, %edi
 80492d5: 83 c4 10                     	addl	$16, %esp
 80492d8: 83 ff ff                     	cmpl	$-1, %edi
 80492db: 75 17                        	jne	23 <send_msg+0x34>
 80492dd: 83 c4 f4                     	addl	$-12, %esp
 80492e0: 68 a6 9b 04 08               	pushl	$134519718
 80492e5: e8 26 f5 ff ff               	calll	-2778 <.plt+0x100>
 80492ea: 83 c4 f4                     	addl	$-12, %esp
 80492ed: 6a 08                        	pushl	$8
 80492ef: e8 5c f5 ff ff               	calll	-2724 <.plt+0x140>
 80492f4: 83 c4 f4                     	addl	$-12, %esp
 80492f7: 6a 00                        	pushl	$0
 80492f9: e8 32 f4 ff ff               	calll	-3022 <.plt+0x20>
 80492fe: 83 c4 10                     	addl	$16, %esp
 8049301: 83 f8 ff                     	cmpl	$-1, %eax
 8049304: 75 1a                        	jne	26 <send_msg+0x60>
 8049306: 83 c4 f4                     	addl	$-12, %esp
 8049309: 68 bb 9b 04 08               	pushl	$134519739
 804930e: e8 fd f4 ff ff               	calll	-2819 <.plt+0x100>
 8049313: 83 c4 f4                     	addl	$-12, %esp
 8049316: 6a 08                        	pushl	$8
 8049318: e8 33 f5 ff ff               	calll	-2765 <.plt+0x140>
 804931d: 8d 76 00                     	leal	(%esi), %esi
 8049320: e8 2b f4 ff ff               	calll	-3029 <.plt+0x40>
 8049325: 89 c6                        	movl	%eax, %esi
 8049327: 85 f6                        	testl	%esi, %esi
 8049329: 75 17                        	jne	23 <send_msg+0x82>
 804932b: 83 c4 f4                     	addl	$-12, %esp
 804932e: 68 cf 9b 04 08               	pushl	$134519759
 8049333: e8 d8 f4 ff ff               	calll	-2856 <.plt+0x100>
 8049338: 83 c4 f4                     	addl	$-12, %esp
 804933b: 6a 08                        	pushl	$8
 804933d: e8 0e f5 ff ff               	calll	-2802 <.plt+0x140>
 8049342: 83 c4 f8                     	addl	$-8, %esp
 8049345: 68 e5 9b 04 08               	pushl	$134519781
 804934a: 56                           	pushl	%esi
 804934b: e8 f0 f3 ff ff               	calll	-3088 <.plt+0x30>
 8049350: 83 c4 f8                     	addl	$-8, %esp
 8049353: 68 01 9c 04 08               	pushl	$134519809
 8049358: 56                           	pushl	%esi
 8049359: e8 e2 f3 ff ff               	calll	-3102 <.plt+0x30>
 804935e: 83 c4 20                     	addl	$32, %esp
 8049361: 83 c4 f4                     	addl	$-12, %esp
 8049364: 6a 00                        	pushl	$0
 8049366: e8 55 f5 ff ff               	calll	-2731 <.plt+0x1b0>
 804936b: 83 c4 10                     	addl	$16, %esp
 804936e: 85 c0                        	testl	%eax, %eax
 8049370: 75 1e                        	jne	30 <send_msg+0xd0>
 8049372: 8d 45 b0                     	leal	-80(%ebp), %eax
 8049375: c7 00 6e 6f 62 6f            	movl	$1868722030, (%eax)
 804937b: 83 c0 04                     	addl	$4, %eax
 804937e: 66 c7 00 64 79               	movw	$31076, (%eax)
 8049383: c6 40 02 00                  	movb	$0, 2(%eax)
 8049387: eb 17                        	jmp	23 <send_msg+0xe0>
 8049389: 8d b4 26 00 00 00 00         	leal	(%esi,%eiz), %esi
 8049390: 83 c4 f8                     	addl	$-8, %esp
 8049393: 50                           	pushl	%eax
 8049394: 8d 45 b0                     	leal	-80(%ebp), %eax
 8049397: 50                           	pushl	%eax
 8049398: e8 33 f5 ff ff               	calll	-2765 <.plt+0x1c0>
 804939d: 83 c4 10                     	addl	$16, %esp
 80493a0: 83 c4 fc                     	addl	$-4, %esp
 80493a3: a1 80 b4 04 08               	movl	134526080, %eax
 80493a8: 50                           	pushl	%eax
 80493a9: b8 12 9c 04 08               	movl	$134519826, %eax
 80493ae: 83 7d 08 00                  	cmpl	$0, 8(%ebp)
 80493b2: 74 05                        	je	5 <send_msg+0xf9>
 80493b4: b8 0a 9c 04 08               	movl	$134519818, %eax
 80493b9: 50                           	pushl	%eax
 80493ba: 8d 45 b0                     	leal	-80(%ebp), %eax
 80493bd: 50                           	pushl	%eax
 80493be: a1 00 ae 04 08               	movl	134524416, %eax
 80493c3: 50                           	pushl	%eax
 80493c4: 68 20 ae 04 08               	pushl	$134524448
 80493c9: 68 1b 9c 04 08               	pushl	$134519835
 80493ce: 56                           	pushl	%esi
 80493cf: e8 6c f3 ff ff               	calll	-3220 <.plt+0x30>
 80493d4: 31 d2                        	xorl	%edx, %edx
 80493d6: 83 c4 20                     	addl	$32, %esp
 80493d9: 3b 15 80 b4 04 08            	cmpl	134526080, %edx
 80493df: 7d 3a                        	jge	58 <send_msg+0x15b>
 80493e1: 83 c4 fc                     	addl	$-4, %esp
 80493e4: 8d 04 92                     	leal	(%edx,%edx,4), %eax
 80493e7: c1 e0 04                     	shll	$4, %eax
 80493ea: 05 80 b6 04 08               	addl	$134526592, %eax
 80493ef: 50                           	pushl	%eax
 80493f0: 8d 5a 01                     	leal	1(%edx), %ebx
 80493f3: 53                           	pushl	%ebx
 80493f4: 8d 45 b0                     	leal	-80(%ebp), %eax
 80493f7: 50                           	pushl	%eax
 80493f8: a1 00 ae 04 08               	movl	134524416, %eax
 80493fd: 50                           	pushl	%eax
 80493fe: 68 20 ae 04 08               	pushl	$134524448
 8049403: 68 37 9c 04 08               	pushl	$134519863
 8049408: 56                           	pushl	%esi
 8049409: e8 32 f3 ff ff               	calll	-3278 <.plt+0x30>
 804940e: 83 c4 20                     	addl	$32, %esp
 8049411: 89 da                        	movl	%ebx, %edx
 8049413: 3b 15 80 b4 04 08            	cmpl	134526080, %edx
 8049419: 7c c6                        	jl	-58 <send_msg+0x121>
 804941b: 83 c4 f4                     	addl	$-12, %esp
 804941e: 56                           	pushl	%esi
 804941f: e8 7c f3 ff ff               	calll	-3204 <.plt+0x90>
 8049424: 83 c4 f4                     	addl	$-12, %esp
 8049427: 68 81 9a 04 08               	pushl	$134519425
 804942c: 68 53 9c 04 08               	pushl	$134519891
 8049431: 68 58 9c 04 08               	pushl	$134519896
 8049436: 68 6f 9c 04 08               	pushl	$134519919
 804943b: 68 c0 bc 04 08               	pushl	$134528192
 8049440: e8 5b f4 ff ff               	calll	-2981 <.plt+0x190>
 8049445: 83 c4 30                     	addl	$48, %esp
 8049448: 83 c4 f4                     	addl	$-12, %esp
 804944b: 68 c0 bc 04 08               	pushl	$134528192
 8049450: e8 5b f3 ff ff               	calll	-3237 <.plt+0xa0>
 8049455: 83 c4 10                     	addl	$16, %esp
 8049458: 85 c0                        	testl	%eax, %eax
 804945a: 74 17                        	je	23 <send_msg+0x1b3>
 804945c: 83 c4 f4                     	addl	$-12, %esp
 804945f: 68 78 9c 04 08               	pushl	$134519928
 8049464: e8 a7 f3 ff ff               	calll	-3161 <.plt+0x100>
 8049469: 83 c4 f4                     	addl	$-12, %esp
 804946c: 6a 08                        	pushl	$8
 804946e: e8 dd f3 ff ff               	calll	-3107 <.plt+0x140>
 8049473: 83 c4 f4                     	addl	$-12, %esp
 8049476: 56                           	pushl	%esi
 8049477: e8 a4 f3 ff ff               	calll	-3164 <.plt+0x110>
 804947c: 83 c4 10                     	addl	$16, %esp
 804947f: 85 c0                        	testl	%eax, %eax
 8049481: 74 1d                        	je	29 <send_msg+0x1e0>
 8049483: 83 c4 f4                     	addl	$-12, %esp
 8049486: 68 93 9c 04 08               	pushl	$134519955
 804948b: e8 80 f3 ff ff               	calll	-3200 <.plt+0x100>
 8049490: 83 c4 f4                     	addl	$-12, %esp
 8049493: 6a 08                        	pushl	$8
 8049495: e8 b6 f3 ff ff               	calll	-3146 <.plt+0x140>
 804949a: 8d b6 00 00 00 00            	leal	(%esi), %esi
 80494a0: 83 c4 f4                     	addl	$-12, %esp
 80494a3: 57                           	pushl	%edi
 80494a4: e8 e7 f3 ff ff               	calll	-3097 <.plt+0x180>
 80494a9: 83 c4 10                     	addl	$16, %esp
 80494ac: 85 c0                        	testl	%eax, %eax
 80494ae: 74 17                        	je	23 <send_msg+0x207>
 80494b0: 83 c4 f4                     	addl	$-12, %esp
 80494b3: 68 ad 9c 04 08               	pushl	$134519981
 80494b8: e8 53 f3 ff ff               	calll	-3245 <.plt+0x100>
 80494bd: 83 c4 f4                     	addl	$-12, %esp
 80494c0: 6a 08                        	pushl	$8
 80494c2: e8 89 f3 ff ff               	calll	-3191 <.plt+0x140>
 80494c7: 83 c4 f4                     	addl	$-12, %esp
 80494ca: 57                           	pushl	%edi
 80494cb: e8 60 f2 ff ff               	calll	-3488 <.plt+0x20>
 80494d0: 83 c4 10                     	addl	$16, %esp
 80494d3: 85 c0                        	testl	%eax, %eax
 80494d5: 74 19                        	je	25 <send_msg+0x230>
 80494d7: 83 c4 f4                     	addl	$-12, %esp
 80494da: 68 c9 9c 04 08               	pushl	$134520009
 80494df: e8 2c f3 ff ff               	calll	-3284 <.plt+0x100>
 80494e4: 83 c4 f4                     	addl	$-12, %esp
 80494e7: 6a 08                        	pushl	$8
 80494e9: e8 62 f3 ff ff               	calll	-3230 <.plt+0x140>
 80494ee: 89 f6                        	movl	%esi, %esi
 80494f0: 8d 65 98                     	leal	-104(%ebp), %esp
 80494f3: 5b                           	popl	%ebx
 80494f4: 5e                           	popl	%esi
 80494f5: 5f                           	popl	%edi
 80494f6: 89 ec                        	movl	%ebp, %esp
 80494f8: 5d                           	popl	%ebp
 80494f9: c3                           	retl
 80494fa: 89 f6                        	movl	%esi, %esi

080494fc explode_bomb:
 80494fc: 55                           	pushl	%ebp
 80494fd: 89 e5                        	movl	%esp, %ebp
 80494ff: 83 ec 08                     	subl	$8, %esp
 8049502: 83 c4 f4                     	addl	$-12, %esp
 8049505: 68 e1 9c 04 08               	pushl	$134520033
 804950a: e8 01 f3 ff ff               	calll	-3327 <.plt+0x100>
 804950f: 83 c4 f4                     	addl	$-12, %esp
 8049512: 68 eb 9c 04 08               	pushl	$134520043
 8049517: e8 f4 f2 ff ff               	calll	-3340 <.plt+0x100>
 804951c: 83 c4 20                     	addl	$32, %esp
 804951f: 83 c4 f4                     	addl	$-12, %esp
 8049522: 6a 08                        	pushl	$8
 8049524: e8 27 f3 ff ff               	calll	-3289 <.plt+0x140>
 8049529: 8d 76 00                     	leal	(%esi), %esi

0804952c phase_defused:
 804952c: 55                           	pushl	%ebp
 804952d: 89 e5                        	movl	%esp, %ebp
 804952f: 83 ec 64                     	subl	$100, %esp
 8049532: 53                           	pushl	%ebx
 8049533: 83 3d 80 b4 04 08 06         	cmpl	$6, 134526080
 804953a: 75 63                        	jne	99 <phase_defused+0x73>
 804953c: 8d 5d b0                     	leal	-80(%ebp), %ebx
 804953f: 53                           	pushl	%ebx
 8049540: 8d 45 ac                     	leal	-84(%ebp), %eax
 8049543: 50                           	pushl	%eax
 8049544: 68 03 9d 04 08               	pushl	$134520067
 8049549: 68 70 b7 04 08               	pushl	$134526832
 804954e: e8 0d f3 ff ff               	calll	-3315 <.plt+0x150>
 8049553: 83 c4 10                     	addl	$16, %esp
 8049556: 83 f8 02                     	cmpl	$2, %eax
 8049559: 75 37                        	jne	55 <phase_defused+0x66>
 804955b: 83 c4 f8                     	addl	$-8, %esp
 804955e: 68 09 9d 04 08               	pushl	$134520073
 8049563: 53                           	pushl	%ebx
 8049564: e8 c7 fa ff ff               	calll	-1337 <strings_not_equal>
 8049569: 83 c4 10                     	addl	$16, %esp
 804956c: 85 c0                        	testl	%eax, %eax
 804956e: 75 22                        	jne	34 <phase_defused+0x66>
 8049570: 83 c4 f4                     	addl	$-12, %esp
 8049573: 68 20 9d 04 08               	pushl	$134520096
 8049578: e8 93 f2 ff ff               	calll	-3437 <.plt+0x100>
 804957d: 83 c4 f4                     	addl	$-12, %esp
 8049580: 68 60 9d 04 08               	pushl	$134520160
 8049585: e8 86 f2 ff ff               	calll	-3450 <.plt+0x100>
 804958a: 83 c4 20                     	addl	$32, %esp
 804958d: e8 56 f9 ff ff               	calll	-1706 <secret_phase>
 8049592: 83 c4 f4                     	addl	$-12, %esp
 8049595: 68 a0 9d 04 08               	pushl	$134520224
 804959a: e8 71 f2 ff ff               	calll	-3471 <.plt+0x100>
 804959f: 8b 5d 98                     	movl	-104(%ebp), %ebx
 80495a2: 89 ec                        	movl	%ebp, %esp
 80495a4: 5d                           	popl	%ebp
 80495a5: c3                           	retl
 80495a6: 90                           	nop
 80495a7: 90                           	nop
 80495a8: 90                           	nop
 80495a9: 90                           	nop
 80495aa: 90                           	nop
 80495ab: 90                           	nop
 80495ac: 90                           	nop
 80495ad: 90                           	nop
 80495ae: 90                           	nop
 80495af: 90                           	nop

080495b0 gcc2_compiled.:
 80495b0: 55                           	pushl	%ebp
 80495b1: 89 e5                        	movl	%esp, %ebp
 80495b3: 83 ec 14                     	subl	$20, %esp
 80495b6: 53                           	pushl	%ebx
 80495b7: bb 08 b5 04 08               	movl	$134526216, %ebx
 80495bc: 83 3d 08 b5 04 08 ff         	cmpl	$-1, 134526216
 80495c3: 74 0c                        	je	12 <gcc2_compiled.+0x21>
 80495c5: 8b 03                        	movl	(%ebx), %eax
 80495c7: ff d0                        	calll	*%eax
 80495c9: 83 c3 fc                     	addl	$-4, %ebx
 80495cc: 83 3b ff                     	cmpl	$-1, (%ebx)
 80495cf: 75 f4                        	jne	-12 <gcc2_compiled.+0x15>
 80495d1: 5b                           	popl	%ebx
 80495d2: 89 ec                        	movl	%ebp, %esp
 80495d4: 5d                           	popl	%ebp
 80495d5: c3                           	retl
 80495d6: 89 f6                        	movl	%esi, %esi

080495d8 init_dummy:
 80495d8: 55                           	pushl	%ebp
 80495d9: 89 e5                        	movl	%esp, %ebp
 80495db: 83 ec 08                     	subl	$8, %esp
 80495de: 89 ec                        	movl	%ebp, %esp
 80495e0: 5d                           	popl	%ebp
 80495e1: c3                           	retl
 80495e2: 90                           	nop
 80495e3: 90                           	nop

Disassembly of section .fini:

080495e4 _fini:
 80495e4: 55                           	pushl	%ebp
 80495e5: 89 e5                        	movl	%esp, %ebp
 80495e7: 53                           	pushl	%ebx
 80495e8: e8 00 00 00 00               	calll	0 <_fini+0x9>
 80495ed: 5b                           	popl	%ebx
 80495ee: 81 c3 2b 1f 00 00            	addl	$7979, %ebx
 80495f4: e8 17 f3 ff ff               	calll	-3305 <gcc2_compiled.>
 80495f9: 8b 5d fc                     	movl	-4(%ebp), %ebx
 80495fc: c9                           	leave
 80495fd: c3                           	retl
